target datalayout = "e-m:e-p270:32:32-p271:32:32-p272:64:64-i64:64-i128:128-f80:128-n8:16:32:64-S128"
target triple = "x86_64-pc-linux-gnu"

%"class.nix::PosIdx" = type { i32 }
%"struct.std::_Rb_tree_key_compare.68" = type { %"struct.std::less.69" }
%"struct.std::less.69" = type { i8 }
%"struct.std::_Rb_tree_header" = type { %"struct.std::_Rb_tree_node_base", i64 }
%"struct.std::_Rb_tree_node_base" = type { i32, ptr, ptr, ptr }
%"class.std::__cxx11::basic_string" = type { %"struct.std::__cxx11::basic_string<char>::_Alloc_hider", i64, %union.anon.32 }
%"struct.std::__cxx11::basic_string<char>::_Alloc_hider" = type { ptr }
%union.anon.32 = type { i64, [8 x i8] }
%"struct.std::__detail::_List_node_header" = type { %"struct.std::__detail::_List_node_base", i64 }
%"struct.std::__detail::_List_node_base" = type { ptr, ptr }
%"class.nix::eval_cache::EvalCache" = type { %"class.std::enable_shared_from_this", %"class.std::shared_ptr", ptr, %"class.std::function", %"class.std::shared_ptr.0" }
%"class.std::enable_shared_from_this" = type { %"class.std::weak_ptr" }
%"class.std::weak_ptr" = type { %"class.std::__weak_ptr" }
%"class.std::__weak_ptr" = type { ptr, %"class.std::__weak_count" }
%"class.std::__weak_count" = type { ptr }
%"class.std::shared_ptr" = type { %"class.std::__shared_ptr" }
%"class.std::__shared_ptr" = type { ptr, %"class.std::__shared_count" }
%"class.std::__shared_count" = type { ptr }
%"class.std::function" = type { %"class.std::_Function_base", ptr }
%"class.std::_Function_base" = type { %"union.std::_Any_data", ptr }
%"union.std::_Any_data" = type { %"union.std::_Nocopy_types" }
%"union.std::_Nocopy_types" = type { { i64, i64 } }
%"class.std::shared_ptr.0" = type { %"class.std::__shared_ptr.1" }
%"class.std::__shared_ptr.1" = type { ptr, %"class.std::__shared_count" }
%"class.nix::EvalState" = type { %"class.std::enable_shared_from_this.3", %"class.nix::SymbolTable", %"class.nix::PosTable", %"class.nix::Symbol", %"class.nix::Symbol", %"class.nix::Symbol", %"class.nix::Symbol", %"class.nix::Symbol", %"class.nix::Symbol", %"class.nix::Symbol", %"class.nix::Symbol", %"class.nix::Symbol", %"class.nix::Symbol", %"class.nix::Symbol", %"class.nix::Symbol", %"class.nix::Symbol", %"class.nix::Symbol", %"class.nix::Symbol", %"class.nix::Symbol", %"class.nix::Symbol", %"class.nix::Symbol", %"class.nix::Symbol", %"class.nix::Symbol", %"class.nix::Symbol", %"class.nix::Symbol", %"class.nix::Symbol", %"class.nix::Symbol", %"class.nix::Symbol", %"class.nix::Symbol", %"class.nix::Symbol", %"class.nix::Symbol", %"class.nix::Symbol", %"class.nix::Symbol", %"class.nix::Symbol", %"class.nix::Symbol", %"class.nix::Symbol", %"class.nix::Symbol", %"class.nix::Symbol", %"class.nix::Symbol", %"class.nix::Symbol", %"struct.nix::Expr::AstSymbols", i8, %"class.nix::Bindings", %"struct.nix::Value", %"class.nix::ref", %"class.nix::ref.25", %"class.nix::ref.25", %"struct.nix::SourcePath", %"struct.nix::SourcePath", %"class.nix::ref.33", %"class.nix::ref.33", %"class.std::shared_ptr.0", ptr, i8, i8, i32, %"class.std::__cxx11::list", %"class.std::map", %"class.std::map.44", %"class.std::map.52", %"class.std::map.54", %"struct.nix::SearchPath", %"class.std::map.63", %"class.std::shared_ptr.71", %"class.std::shared_ptr.74", %"class.std::shared_ptr.74", ptr, %"class.std::shared_ptr.77", %"class.std::vector.80", i32, i64, i64, i64, i64, i64, i64, i64, i64, i64, i64, i64, i64, i64, i64, i8, %"class.std::map.85", %"class.std::map.90", %"class.std::map.98" }
%"class.std::enable_shared_from_this.3" = type { %"class.std::weak_ptr.4" }
%"class.std::weak_ptr.4" = type { %"class.std::__weak_ptr.5" }
%"class.std::__weak_ptr.5" = type { ptr, %"class.std::__weak_count" }
%"class.nix::SymbolTable" = type { %"class.std::unordered_map", %"class.nix::ChunkedVector" }
%"class.std::unordered_map" = type { %"class.std::_Hashtable" }
%"class.std::_Hashtable" = type { ptr, i64, %"struct.std::__detail::_Hash_node_base", i64, %"struct.std::__detail::_Prime_rehash_policy", ptr }
%"struct.std::__detail::_Hash_node_base" = type { ptr }
%"struct.std::__detail::_Prime_rehash_policy" = type { float, i64 }
%"class.nix::ChunkedVector" = type { i32, %"class.std::vector" }
%"class.std::vector" = type { %"struct.std::_Vector_base" }
%"struct.std::_Vector_base" = type { %"struct.std::_Vector_base<std::vector<std::__cxx11::basic_string<char>>, std::allocator<std::vector<std::__cxx11::basic_string<char>>>>::_Vector_impl" }
%"struct.std::_Vector_base<std::vector<std::__cxx11::basic_string<char>>, std::allocator<std::vector<std::__cxx11::basic_string<char>>>>::_Vector_impl" = type { %"struct.std::_Vector_base<std::vector<std::__cxx11::basic_string<char>>, std::allocator<std::vector<std::__cxx11::basic_string<char>>>>::_Vector_impl_data" }
%"struct.std::_Vector_base<std::vector<std::__cxx11::basic_string<char>>, std::allocator<std::vector<std::__cxx11::basic_string<char>>>>::_Vector_impl_data" = type { ptr, ptr, ptr }
%"class.nix::PosTable" = type { %"class.std::vector.11", %"class.nix::ChunkedVector.16" }
%"class.std::vector.11" = type { %"struct.std::_Vector_base.12" }
%"struct.std::_Vector_base.12" = type { %"struct.std::_Vector_base<nix::PosTable::Origin, std::allocator<nix::PosTable::Origin>>::_Vector_impl" }
%"struct.std::_Vector_base<nix::PosTable::Origin, std::allocator<nix::PosTable::Origin>>::_Vector_impl" = type { %"struct.std::_Vector_base<nix::PosTable::Origin, std::allocator<nix::PosTable::Origin>>::_Vector_impl_data" }
%"struct.std::_Vector_base<nix::PosTable::Origin, std::allocator<nix::PosTable::Origin>>::_Vector_impl_data" = type { ptr, ptr, ptr }
%"class.nix::ChunkedVector.16" = type { i32, %"class.std::vector.17" }
%"class.std::vector.17" = type { %"struct.std::_Vector_base.18" }
%"struct.std::_Vector_base.18" = type { %"struct.std::_Vector_base<std::vector<nix::PosTable::Offset>, std::allocator<std::vector<nix::PosTable::Offset>>>::_Vector_impl" }
%"struct.std::_Vector_base<std::vector<nix::PosTable::Offset>, std::allocator<std::vector<nix::PosTable::Offset>>>::_Vector_impl" = type { %"struct.std::_Vector_base<std::vector<nix::PosTable::Offset>, std::allocator<std::vector<nix::PosTable::Offset>>>::_Vector_impl_data" }
%"struct.std::_Vector_base<std::vector<nix::PosTable::Offset>, std::allocator<std::vector<nix::PosTable::Offset>>>::_Vector_impl_data" = type { ptr, ptr, ptr }
%"class.nix::Symbol" = type { i32 }
%"struct.nix::Expr::AstSymbols" = type { %"class.nix::Symbol", %"class.nix::Symbol", %"class.nix::Symbol", %"class.nix::Symbol", %"class.nix::Symbol", %"class.nix::Symbol", %"class.nix::Symbol", %"class.nix::Symbol" }
%"class.nix::Bindings" = type { %"class.nix::PosIdx", i32, i32, [0 x %"struct.nix::Attr"] }
%"struct.nix::Attr" = type { %"class.nix::Symbol", %"class.nix::PosIdx", ptr }
%"struct.nix::Value" = type { i32, %union.anon }
%union.anon = type { %"struct.nix::Value::StringWithContext" }
%"struct.nix::Value::StringWithContext" = type { ptr, ptr }
%"class.nix::ref" = type { %"class.std::shared_ptr.22" }
%"class.std::shared_ptr.22" = type { %"class.std::__shared_ptr.23" }
%"class.std::__shared_ptr.23" = type { ptr, %"class.std::__shared_count" }
%"class.nix::ref.25" = type { %"class.std::shared_ptr.26" }
%"class.std::shared_ptr.26" = type { %"class.std::__shared_ptr.27" }
%"class.std::__shared_ptr.27" = type { ptr, %"class.std::__shared_count" }
%"struct.nix::SourcePath" = type { %"class.nix::ref", %"class.nix::CanonPath" }
%"class.nix::CanonPath" = type { %"class.std::__cxx11::basic_string" }
%"class.nix::ref.33" = type { %"class.std::shared_ptr.34" }
%"class.std::shared_ptr.34" = type { %"class.std::__shared_ptr.35" }
%"class.std::__shared_ptr.35" = type { ptr, %"class.std::__shared_count" }
%"class.std::__cxx11::list" = type { %"class.std::__cxx11::_List_base" }
%"class.std::__cxx11::_List_base" = type { %"struct.std::__cxx11::_List_base<nix::DebugTrace, std::allocator<nix::DebugTrace>>::_List_impl" }
%"struct.std::__cxx11::_List_base<nix::DebugTrace, std::allocator<nix::DebugTrace>>::_List_impl" = type { %"struct.std::__detail::_List_node_header" }
%"class.std::map" = type { %"class.std::_Rb_tree" }
%"class.std::_Rb_tree" = type { %"struct.std::_Rb_tree<const nix::Expr *, std::pair<const nix::Expr *const, const std::shared_ptr<const nix::StaticEnv>>, std::_Select1st<std::pair<const nix::Expr *const, const std::shared_ptr<const nix::StaticEnv>>>, std::less<const nix::Expr *>>::_Rb_tree_impl" }
%"struct.std::_Rb_tree<const nix::Expr *, std::pair<const nix::Expr *const, const std::shared_ptr<const nix::StaticEnv>>, std::_Select1st<std::pair<const nix::Expr *const, const std::shared_ptr<const nix::StaticEnv>>>, std::less<const nix::Expr *>>::_Rb_tree_impl" = type { %"struct.std::_Rb_tree_key_compare", %"struct.std::_Rb_tree_header" }
%"struct.std::_Rb_tree_key_compare" = type { %"struct.std::less" }
%"struct.std::less" = type { i8 }
%"class.std::map.44" = type { %"class.std::_Rb_tree.45" }
%"class.std::_Rb_tree.45" = type { %"struct.std::_Rb_tree<nix::SourcePath, std::pair<const nix::SourcePath, nix::StorePath>, std::_Select1st<std::pair<const nix::SourcePath, nix::StorePath>>, std::less<nix::SourcePath>>::_Rb_tree_impl" }
%"struct.std::_Rb_tree<nix::SourcePath, std::pair<const nix::SourcePath, nix::StorePath>, std::_Select1st<std::pair<const nix::SourcePath, nix::StorePath>>, std::less<nix::SourcePath>>::_Rb_tree_impl" = type { %"struct.std::_Rb_tree_key_compare.49", %"struct.std::_Rb_tree_header" }
%"struct.std::_Rb_tree_key_compare.49" = type { %"struct.std::less.50" }
%"struct.std::less.50" = type { i8 }
%"class.std::map.52" = type { %"class.std::_Rb_tree.53" }
%"class.std::_Rb_tree.53" = type { %"struct.std::_Rb_tree<nix::SourcePath, std::pair<const nix::SourcePath, nix::Expr *>, std::_Select1st<std::pair<const nix::SourcePath, nix::Expr *>>, std::less<nix::SourcePath>, traceable_allocator<std::pair<const nix::SourcePath, nix::Expr *>>>::_Rb_tree_impl" }
%"struct.std::_Rb_tree<nix::SourcePath, std::pair<const nix::SourcePath, nix::Expr *>, std::_Select1st<std::pair<const nix::SourcePath, nix::Expr *>>, std::less<nix::SourcePath>, traceable_allocator<std::pair<const nix::SourcePath, nix::Expr *>>>::_Rb_tree_impl" = type { %"struct.std::_Rb_tree_key_compare.49", %"struct.std::_Rb_tree_header" }
%"class.std::map.54" = type { %"class.std::_Rb_tree.55" }
%"class.std::_Rb_tree.55" = type { %"struct.std::_Rb_tree<nix::SourcePath, std::pair<const nix::SourcePath, nix::Value>, std::_Select1st<std::pair<const nix::SourcePath, nix::Value>>, std::less<nix::SourcePath>, traceable_allocator<std::pair<const nix::SourcePath, nix::Value>>>::_Rb_tree_impl" }
%"struct.std::_Rb_tree<nix::SourcePath, std::pair<const nix::SourcePath, nix::Value>, std::_Select1st<std::pair<const nix::SourcePath, nix::Value>>, std::less<nix::SourcePath>, traceable_allocator<std::pair<const nix::SourcePath, nix::Value>>>::_Rb_tree_impl" = type { %"struct.std::_Rb_tree_key_compare.49", %"struct.std::_Rb_tree_header" }
%"struct.nix::SearchPath" = type { %"class.std::__cxx11::list.58" }
%"class.std::__cxx11::list.58" = type { %"class.std::__cxx11::_List_base.59" }
%"class.std::__cxx11::_List_base.59" = type { %"struct.std::__cxx11::_List_base<nix::SearchPath::Elem, std::allocator<nix::SearchPath::Elem>>::_List_impl" }
%"struct.std::__cxx11::_List_base<nix::SearchPath::Elem, std::allocator<nix::SearchPath::Elem>>::_List_impl" = type { %"struct.std::__detail::_List_node_header" }
%"class.std::map.63" = type { %"class.std::_Rb_tree.64" }
%"class.std::_Rb_tree.64" = type { %"struct.std::_Rb_tree<std::__cxx11::basic_string<char>, std::pair<const std::__cxx11::basic_string<char>, std::optional<std::__cxx11::basic_string<char>>>, std::_Select1st<std::pair<const std::__cxx11::basic_string<char>, std::optional<std::__cxx11::basic_string<char>>>>, std::less<std::__cxx11::basic_string<char>>>::_Rb_tree_impl" }
%"struct.std::_Rb_tree<std::__cxx11::basic_string<char>, std::pair<const std::__cxx11::basic_string<char>, std::optional<std::__cxx11::basic_string<char>>>, std::_Select1st<std::pair<const std::__cxx11::basic_string<char>, std::optional<std::__cxx11::basic_string<char>>>>, std::less<std::__cxx11::basic_string<char>>>::_Rb_tree_impl" = type { %"struct.std::_Rb_tree_key_compare.68", %"struct.std::_Rb_tree_header" }
%"class.std::shared_ptr.71" = type { %"class.std::__shared_ptr.72" }
%"class.std::__shared_ptr.72" = type { ptr, %"class.std::__shared_count" }
%"class.std::shared_ptr.74" = type { %"class.std::__shared_ptr.75" }
%"class.std::__shared_ptr.75" = type { ptr, %"class.std::__shared_count" }
%"class.std::shared_ptr.77" = type { %"class.std::__shared_ptr.78" }
%"class.std::__shared_ptr.78" = type { ptr, %"class.std::__shared_count" }
%"class.std::vector.80" = type { %"struct.std::_Vector_base.81" }
%"struct.std::_Vector_base.81" = type { %"struct.std::_Vector_base<std::pair<std::__cxx11::basic_string<char>, nix::Constant>, std::allocator<std::pair<std::__cxx11::basic_string<char>, nix::Constant>>>::_Vector_impl" }
%"struct.std::_Vector_base<std::pair<std::__cxx11::basic_string<char>, nix::Constant>, std::allocator<std::pair<std::__cxx11::basic_string<char>, nix::Constant>>>::_Vector_impl" = type { %"struct.std::_Vector_base<std::pair<std::__cxx11::basic_string<char>, nix::Constant>, std::allocator<std::pair<std::__cxx11::basic_string<char>, nix::Constant>>>::_Vector_impl_data" }
%"struct.std::_Vector_base<std::pair<std::__cxx11::basic_string<char>, nix::Constant>, std::allocator<std::pair<std::__cxx11::basic_string<char>, nix::Constant>>>::_Vector_impl_data" = type { ptr, ptr, ptr }
%"class.std::map.85" = type { %"class.std::_Rb_tree.86" }
%"class.std::_Rb_tree.86" = type { %"struct.std::_Rb_tree<std::__cxx11::basic_string<char>, std::pair<const std::__cxx11::basic_string<char>, unsigned long>, std::_Select1st<std::pair<const std::__cxx11::basic_string<char>, unsigned long>>, std::less<std::__cxx11::basic_string<char>>>::_Rb_tree_impl" }
%"struct.std::_Rb_tree<std::__cxx11::basic_string<char>, std::pair<const std::__cxx11::basic_string<char>, unsigned long>, std::_Select1st<std::pair<const std::__cxx11::basic_string<char>, unsigned long>>, std::less<std::__cxx11::basic_string<char>>>::_Rb_tree_impl" = type { %"struct.std::_Rb_tree_key_compare.68", %"struct.std::_Rb_tree_header" }
%"class.std::map.90" = type { %"class.std::_Rb_tree.91" }
%"class.std::_Rb_tree.91" = type { %"struct.std::_Rb_tree<nix::ExprLambda *, std::pair<nix::ExprLambda *const, unsigned long>, std::_Select1st<std::pair<nix::ExprLambda *const, unsigned long>>, std::less<nix::ExprLambda *>>::_Rb_tree_impl" }
%"struct.std::_Rb_tree<nix::ExprLambda *, std::pair<nix::ExprLambda *const, unsigned long>, std::_Select1st<std::pair<nix::ExprLambda *const, unsigned long>>, std::less<nix::ExprLambda *>>::_Rb_tree_impl" = type { %"struct.std::_Rb_tree_key_compare.95", %"struct.std::_Rb_tree_header" }
%"struct.std::_Rb_tree_key_compare.95" = type { %"struct.std::less.96" }
%"struct.std::less.96" = type { i8 }
%"class.std::map.98" = type { %"class.std::_Rb_tree.99" }
%"class.std::_Rb_tree.99" = type { %"struct.std::_Rb_tree<nix::PosIdx, std::pair<const nix::PosIdx, unsigned long>, std::_Select1st<std::pair<const nix::PosIdx, unsigned long>>, std::less<nix::PosIdx>>::_Rb_tree_impl" }
%"struct.std::_Rb_tree<nix::PosIdx, std::pair<const nix::PosIdx, unsigned long>, std::_Select1st<std::pair<const nix::PosIdx, unsigned long>>, std::less<nix::PosIdx>>::_Rb_tree_impl" = type { %"struct.std::_Rb_tree_key_compare.103", %"struct.std::_Rb_tree_header" }
%"struct.std::_Rb_tree_key_compare.103" = type { %"struct.std::less.104" }
%"struct.std::less.104" = type { i8 }
%"class.std::basic_string_view" = type { i64, ptr }
%"class.nix::ref.154" = type { %"class.std::shared_ptr.155" }
%"class.std::shared_ptr.155" = type { %"class.std::__shared_ptr.156" }
%"class.std::__shared_ptr.156" = type { ptr, %"class.std::__shared_count" }
%"class.nix::ref.158" = type { %"class.std::shared_ptr.159" }
%"class.std::shared_ptr.159" = type { %"class.std::__shared_ptr.160" }
%"class.std::__shared_ptr.160" = type { ptr, %"class.std::__shared_count" }
%"class.nix::eval_cache::AttrCursor" = type { %"class.std::enable_shared_from_this.172", %"class.nix::ref.158", %"class.std::optional.162", %"class.std::shared_ptr.0", %"class.std::optional.175" }
%"class.std::enable_shared_from_this.172" = type { %"class.std::weak_ptr.173" }
%"class.std::weak_ptr.173" = type { %"class.std::__weak_ptr.174" }
%"class.std::__weak_ptr.174" = type { ptr, %"class.std::__weak_count" }
%"class.std::optional.162" = type { %"struct.std::_Optional_base.163" }
%"struct.std::_Optional_base.163" = type { %"struct.std::_Optional_payload.165" }
%"struct.std::_Optional_payload.165" = type { %"struct.std::_Optional_payload.base.169", [7 x i8] }
%"struct.std::_Optional_payload.base.169" = type { %"struct.std::_Optional_payload_base.base.168" }
%"struct.std::_Optional_payload_base.base.168" = type { %"union.std::_Optional_payload_base<std::pair<std::shared_ptr<nix::eval_cache::AttrCursor>, nix::Symbol>>::_Storage", i8 }
%"union.std::_Optional_payload_base<std::pair<std::shared_ptr<nix::eval_cache::AttrCursor>, nix::Symbol>>::_Storage" = type { %"struct.std::pair" }
%"struct.std::pair" = type <{ %"class.std::shared_ptr.155", %"class.nix::Symbol", [4 x i8] }>
%"class.std::optional.175" = type { %"struct.std::_Optional_base.176" }
%"struct.std::_Optional_base.176" = type { %"struct.std::_Optional_payload.178" }
%"struct.std::_Optional_payload.178" = type { %"struct.std::_Optional_payload.base.206", [7 x i8] }
%"struct.std::_Optional_payload.base.206" = type { %"struct.std::_Optional_payload_base.base.205" }
%"struct.std::_Optional_payload_base.base.205" = type <{ %"union.std::_Optional_payload_base<std::pair<unsigned long, std::variant<std::vector<nix::Symbol>, std::pair<std::__cxx11::basic_string<char>, std::set<nix::NixStringContextElem>>, nix::eval_cache::placeholder_t, nix::eval_cache::missing_t, nix::eval_cache::misc_t, nix::eval_cache::failed_t, bool, nix::eval_cache::int_t, std::vector<std::__cxx11::basic_string<char>>>>>::_Storage", i8 }>
%"union.std::_Optional_payload_base<std::pair<unsigned long, std::variant<std::vector<nix::Symbol>, std::pair<std::__cxx11::basic_string<char>, std::set<nix::NixStringContextElem>>, nix::eval_cache::placeholder_t, nix::eval_cache::missing_t, nix::eval_cache::misc_t, nix::eval_cache::failed_t, bool, nix::eval_cache::int_t, std::vector<std::__cxx11::basic_string<char>>>>>::_Storage" = type { %"struct.std::pair.181" }
%"struct.std::pair.181" = type { i64, %"class.std::variant" }
%"class.std::variant" = type { %"struct.std::__detail::__variant::_Variant_base.base", [7 x i8] }
%"struct.std::__detail::__variant::_Variant_base.base" = type { %"struct.std::__detail::__variant::_Move_assign_base.base" }
%"struct.std::__detail::__variant::_Move_assign_base.base" = type { %"struct.std::__detail::__variant::_Copy_assign_base.base" }
%"struct.std::__detail::__variant::_Copy_assign_base.base" = type { %"struct.std::__detail::__variant::_Move_ctor_base.base" }
%"struct.std::__detail::__variant::_Move_ctor_base.base" = type { %"struct.std::__detail::__variant::_Copy_ctor_base.base" }
%"struct.std::__detail::__variant::_Copy_ctor_base.base" = type { %"struct.std::__detail::__variant::_Variant_storage.base" }
%"struct.std::__detail::__variant::_Variant_storage.base" = type <{ %"union.std::__detail::__variant::_Variadic_union", i8 }>
%"union.std::__detail::__variant::_Variadic_union" = type { %"union.std::__detail::__variant::_Variadic_union.183" }
%"union.std::__detail::__variant::_Variadic_union.183" = type { %"union.std::__detail::__variant::_Variadic_union.186", [56 x i8] }
%"union.std::__detail::__variant::_Variadic_union.186" = type { %"union.std::__detail::__variant::_Variadic_union.188" }
%"union.std::__detail::__variant::_Variadic_union.188" = type { %"union.std::__detail::__variant::_Variadic_union.190" }
%"union.std::__detail::__variant::_Variadic_union.190" = type { %"union.std::__detail::__variant::_Variadic_union.192" }
%"union.std::__detail::__variant::_Variadic_union.192" = type { %"union.std::__detail::__variant::_Variadic_union.194" }
%"union.std::__detail::__variant::_Variadic_union.194" = type { %"union.std::__detail::__variant::_Variadic_union.196" }
%"union.std::__detail::__variant::_Variadic_union.196" = type { %"struct.std::__detail::__variant::_Uninitialized.197", [16 x i8] }
%"struct.std::__detail::__variant::_Uninitialized.197" = type { %"struct.nix::eval_cache::int_t" }
%"struct.nix::eval_cache::int_t" = type { i64 }

; Function Attrs: mustprogress nounwind uwtable
define linkonce_odr noundef ptr @_ZNKSt12__shared_ptrIN3nix10eval_cache9EvalCacheELN9__gnu_cxx12_Lock_policyE2EE3getEv(ptr noundef nonnull align 8 dereferenceable(16) %0) #2 comdat align 2 {
  %2 = alloca ptr, align 8
  store ptr %0, ptr %2, align 8
  %3 = load ptr, ptr %2, align 8
  %4 = getelementptr inbounds %"class.std::__shared_ptr.160", ptr %3, i32 0, i32 0
  %5 = load ptr, ptr %4, align 8
  ret ptr %5
}

; Function Attrs: mustprogress nounwind uwtable
define linkonce_odr noundef ptr @_ZNKSt19__shared_ptr_accessIN3nix10eval_cache9EvalCacheELN9__gnu_cxx12_Lock_policyE2ELb0ELb0EE6_M_getEv(ptr noundef nonnull align 1 dereferenceable(1) %0) #2 comdat align 2 {
  %2 = alloca ptr, align 8
  store ptr %0, ptr %2, align 8
  %3 = load ptr, ptr %2, align 8
  %4 = call noundef ptr @_ZNKSt12__shared_ptrIN3nix10eval_cache9EvalCacheELN9__gnu_cxx12_Lock_policyE2EE3getEv(ptr noundef nonnull align 8 dereferenceable(16) %3) #1
  ret ptr %4
}

; Function Attrs: mustprogress nounwind uwtable
define linkonce_odr noundef nonnull align 8 dereferenceable(88) ptr @_ZNKSt19__shared_ptr_accessIN3nix10eval_cache9EvalCacheELN9__gnu_cxx12_Lock_policyE2ELb0ELb0EEdeEv(ptr noundef nonnull align 1 dereferenceable(1) %0) #2 comdat align 2 {
  %2 = alloca ptr, align 8
  store ptr %0, ptr %2, align 8
  %3 = load ptr, ptr %2, align 8
  br label %4

4:                                                ; preds = %1
  br label %5

5:                                                ; preds = %4
  br label %6

6:                                                ; preds = %5
  %7 = call noundef ptr @_ZNKSt19__shared_ptr_accessIN3nix10eval_cache9EvalCacheELN9__gnu_cxx12_Lock_policyE2ELb0ELb0EE6_M_getEv(ptr noundef nonnull align 1 dereferenceable(1) %3) #1
  ret ptr %7
}

; Function Attrs: mustprogress nounwind uwtable
define linkonce_odr noundef ptr @_ZNK3nix3refINS_10eval_cache9EvalCacheEEptEv(ptr noundef nonnull align 8 dereferenceable(16) %0) #2 comdat align 2 {
  %2 = alloca ptr, align 8
  store ptr %0, ptr %2, align 8
  %3 = load ptr, ptr %2, align 8
  %4 = getelementptr inbounds %"class.nix::ref.158", ptr %3, i32 0, i32 0
  %5 = call noundef nonnull align 8 dereferenceable(88) ptr @_ZNKSt19__shared_ptr_accessIN3nix10eval_cache9EvalCacheELN9__gnu_cxx12_Lock_policyE2ELb0ELb0EEdeEv(ptr noundef nonnull align 1 dereferenceable(1) %4) #1
  ret ptr %5
}

; Function Attrs: mustprogress uwtable
define void @_ZN3nix10eval_cache10AttrCursor7getAttrESt17basic_string_viewIcSt11char_traitsIcEE(ptr dead_on_unwind noalias writable sret(%"class.nix::ref.154") align 8 %0, ptr noundef nonnull align 8 dereferenceable(184) %1, i64 %2, ptr %3) #5 align 2 {
  %5 = alloca ptr, align 8
  %6 = alloca %"class.std::basic_string_view", align 8
  %7 = alloca ptr, align 8
  %8 = alloca %"class.nix::Symbol", align 4
  %9 = alloca %"class.std::basic_string_view", align 8
  store ptr %0, ptr %5, align 8
  %10 = getelementptr inbounds { i64, ptr }, ptr %6, i32 0, i32 0
  store i64 %2, ptr %10, align 8
  %11 = getelementptr inbounds { i64, ptr }, ptr %6, i32 0, i32 1
  store ptr %3, ptr %11, align 8
  store ptr %1, ptr %7, align 8
  %12 = load ptr, ptr %7, align 8
  %13 = getelementptr inbounds %"class.nix::eval_cache::AttrCursor", ptr %12, i32 0, i32 1
  %14 = call noundef ptr @_ZNK3nix3refINS_10eval_cache9EvalCacheEEptEv(ptr noundef nonnull align 8 dereferenceable(16) %13)
  %15 = getelementptr inbounds %"class.nix::eval_cache::EvalCache", ptr %14, i32 0, i32 2
  %16 = load ptr, ptr %15, align 8
  %17 = getelementptr inbounds %"class.nix::EvalState", ptr %16, i32 0, i32 1
  call void @llvm.memcpy.p0.p0.i64(ptr align 8 %9, ptr align 8 %6, i64 16, i1 false)
  %18 = getelementptr inbounds { i64, ptr }, ptr %9, i32 0, i32 0
  %19 = load i64, ptr %18, align 8
  %20 = getelementptr inbounds { i64, ptr }, ptr %9, i32 0, i32 1
  %21 = load ptr, ptr %20, align 8
  %22 = call i32 @_ZN3nix11SymbolTable6createESt17basic_string_viewIcSt11char_traitsIcEE(ptr noundef nonnull align 8 dereferenceable(88) %17, i64 %19, ptr %21)
  %23 = getelementptr inbounds %"class.nix::Symbol", ptr %8, i32 0, i32 0
  store i32 %22, ptr %23, align 4
  %24 = getelementptr inbounds %"class.nix::Symbol", ptr %8, i32 0, i32 0
  %25 = load i32, ptr %24, align 4
  call void @_ZN3nix10eval_cache10AttrCursor7getAttrENS_6SymbolEb(ptr dead_on_unwind writable sret(%"class.nix::ref.154") align 8 %0, ptr noundef nonnull align 8 dereferenceable(184) %12, i32 %25, i1 noundef zeroext false)
  ret void
}